; Function Attrs: mustprogress uwtable
define noundef zeroext i1 @_ZN5draco22MeshEdgebreakerEncoder33EncodeAttributesEncoderIdentifierEi(ptr nocapture noundef nonnull readonly align 8 dereferenceable(136) %0, i32 noundef %1) unnamed_addr #3 align 2 {
  %3 = getelementptr inbounds i8, ptr %0, i64 128
  %4 = load ptr, ptr %3, align 8
  %5 = load ptr, ptr %4, align 8
  %6 = getelementptr inbounds i8, ptr %5, i64 48
  %7 = load ptr, ptr %6, align 8
  %8 = tail call noundef zeroext i1 %7(ptr noundef nonnull align 8 dereferenceable(8) %4, i32 noundef %1)
  ret i1 %8
}